; Function Attrs: nounwind uwtable
define internal void @gzip_do_close(ptr noundef %0, ptr noundef %1) #0 {
  %3 = getelementptr inbounds nuw i8, ptr %1, i64 40
  %4 = getelementptr inbounds nuw i8, ptr %1, i64 32
  %5 = load i32, ptr %4, align 4, !tbaa !103
  %6 = icmp eq i32 %5, 4
  br i1 %6, label %7, label %10

7:                                                ; preds = %2
  %8 = load ptr, ptr @Curl_cfree, align 8, !tbaa !104
  %9 = load ptr, ptr %3, align 8, !tbaa !101
  tail call void %8(ptr noundef %9) #8
  store ptr null, ptr %3, align 8, !tbaa !101
  %.pr.i = load i32, ptr %4, align 4, !tbaa !103
  br label %10

10:                                               ; preds = %7, %2
  %11 = phi i32 [ %.pr.i, %7 ], [ %5, %2 ]
  %.not.i = icmp eq i32 %11, 0
  br i1 %.not.i, label %exit_zlib.exit, label %12

12:                                               ; preds = %10
  %13 = tail call i32 @cm_zlib_inflateEnd(ptr noundef nonnull %3) #8
  %.not = icmp eq i32 %13, 0
  br i1 %.not, label %process_zlib_error.exit.i, label %14

14:                                               ; preds = %12
  %15 = getelementptr i8, ptr %1, i64 88
  %.val.i = load ptr, ptr %15, align 8, !tbaa !96
  %.not.i.i = icmp eq ptr %.val.i, null
  br i1 %.not.i.i, label %17, label %16

16:                                               ; preds = %14
  tail call void (ptr, ptr, ...) @Curl_failf(ptr noundef %0, ptr noundef nonnull @.str.13, ptr noundef nonnull %.val.i) #8
  br label %process_zlib_error.exit.i

17:                                               ; preds = %14
  tail call void (ptr, ptr, ...) @Curl_failf(ptr noundef %0, ptr noundef nonnull @.str.14) #8
  br label %process_zlib_error.exit.i

process_zlib_error.exit.i:                        ; preds = %17, %16, %12
  store i32 0, ptr %4, align 4, !tbaa !103
  br label %exit_zlib.exit

exit_zlib.exit:                                   ; preds = %10, %process_zlib_error.exit.i
  ret void
}